target datalayout = "e-m:e-p270:32:32-p271:32:32-p272:64:64-i64:64-i128:128-f80:128-n8:16:32:64-S128"
target triple = "x86_64-pc-linux-gnu"

%struct.state = type { i32, i32, i32, i32, i8, i8, [2000 x i64], [2000 x i8], [256 x %struct.ttinfo], [512 x i8], [50 x %struct.lsinfo], i32 }
%struct.ttinfo = type { i32, i8, i32, i8, i8 }
%struct.lsinfo = type { i64, i64 }
%struct.pg_tz = type { [256 x i8], %struct.state }

; Function Attrs: nounwind uwtable
define dso_local zeroext i1 @pg_get_timezone_offset(ptr noundef %0, ptr noundef %1) #0 {
  %3 = alloca i1, align 1
  %4 = alloca ptr, align 8
  %5 = alloca ptr, align 8
  %6 = alloca ptr, align 8
  %7 = alloca i32, align 4
  %8 = alloca i32, align 4
  store ptr %0, ptr %4, align 8
  store ptr %1, ptr %5, align 8
  call void @llvm.lifetime.start.p0(i64 8, ptr %6) #8
  call void @llvm.lifetime.start.p0(i64 4, ptr %7) #8
  %9 = load ptr, ptr %4, align 8
  %10 = getelementptr inbounds nuw %struct.pg_tz, ptr %9, i32 0, i32 1
  store ptr %10, ptr %6, align 8
  store i32 1, ptr %7, align 4
  br label %11

11:                                               ; preds = %33, %2
  %12 = load i32, ptr %7, align 4
  %13 = load ptr, ptr %6, align 8
  %14 = getelementptr inbounds nuw %struct.state, ptr %13, i32 0, i32 2
  %15 = load i32, ptr %14, align 8
  %16 = icmp slt i32 %12, %15
  br i1 %16, label %17, label %36

17:                                               ; preds = %11
  %18 = load ptr, ptr %6, align 8
  %19 = getelementptr inbounds nuw %struct.state, ptr %18, i32 0, i32 8
  %20 = load i32, ptr %7, align 4
  %21 = sext i32 %20 to i64
  %22 = getelementptr inbounds [256 x %struct.ttinfo], ptr %19, i64 0, i64 %21
  %23 = getelementptr inbounds nuw %struct.ttinfo, ptr %22, i32 0, i32 0
  %24 = load i32, ptr %23, align 8
  %25 = load ptr, ptr %6, align 8
  %26 = getelementptr inbounds nuw %struct.state, ptr %25, i32 0, i32 8
  %27 = getelementptr inbounds [256 x %struct.ttinfo], ptr %26, i64 0, i64 0
  %28 = getelementptr inbounds nuw %struct.ttinfo, ptr %27, i32 0, i32 0
  %29 = load i32, ptr %28, align 8
  %30 = icmp ne i32 %24, %29
  br i1 %30, label %31, label %32

31:                                               ; preds = %17
  store i1 false, ptr %3, align 1
  store i32 1, ptr %8, align 4
  br label %44

32:                                               ; preds = %17
  br label %33

33:                                               ; preds = %32
  %34 = load i32, ptr %7, align 4
  %35 = add i32 %34, 1
  store i32 %35, ptr %7, align 4
  br label %11, !llvm.loop !46

36:                                               ; preds = %11
  %37 = load ptr, ptr %6, align 8
  %38 = getelementptr inbounds nuw %struct.state, ptr %37, i32 0, i32 8
  %39 = getelementptr inbounds [256 x %struct.ttinfo], ptr %38, i64 0, i64 0
  %40 = getelementptr inbounds nuw %struct.ttinfo, ptr %39, i32 0, i32 0
  %41 = load i32, ptr %40, align 8
  %42 = sext i32 %41 to i64
  %43 = load ptr, ptr %5, align 8
  store i64 %42, ptr %43, align 8
  store i1 true, ptr %3, align 1
  store i32 1, ptr %8, align 4
  br label %44

44:                                               ; preds = %36, %31
  call void @llvm.lifetime.end.p0(i64 4, ptr %7) #8
  call void @llvm.lifetime.end.p0(i64 8, ptr %6) #8
  %45 = load i1, ptr %3, align 1
  ret i1 %45
}