; Function Attrs: nofree norecurse nosync nounwind memory(argmem: readwrite) uwtable
define dso_local noundef zeroext i1 @pg_get_timezone_offset(ptr noundef readonly captures(none) %0, ptr noundef writeonly captures(none) %1) local_unnamed_addr #7 {
  %3 = getelementptr inbounds nuw i8, ptr %0, i64 264
  %4 = load i32, ptr %3, align 8
  %5 = icmp slt i32 %4, 2
  %.phi.trans.insert = getelementptr inbounds nuw i8, ptr %0, i64 18280
  %.pre = load i32, ptr %.phi.trans.insert, align 8
  br i1 %5, label %._crit_edge, label %.lr.ph

.lr.ph:                                           ; preds = %2
  %wide.trip.count = zext nneg i32 %4 to i64
  br label %7

6:                                                ; preds = %7
  %indvars.iv.next = add nuw nsw i64 %indvars.iv, 1
  %exitcond.not = icmp eq i64 %indvars.iv.next, %wide.trip.count
  br i1 %exitcond.not, label %._crit_edge, label %7, !llvm.loop !49

7:                                                ; preds = %.lr.ph, %6
  %indvars.iv = phi i64 [ 1, %.lr.ph ], [ %indvars.iv.next, %6 ]
  %8 = getelementptr inbounds nuw [256 x %struct.ttinfo], ptr %.phi.trans.insert, i64 0, i64 %indvars.iv
  %9 = load i32, ptr %8, align 8
  %.not = icmp eq i32 %9, %.pre
  br i1 %.not, label %6, label %.loopexit

._crit_edge:                                      ; preds = %6, %2
  %10 = sext i32 %.pre to i64
  store i64 %10, ptr %1, align 8
  br label %.loopexit

.loopexit:                                        ; preds = %7, %._crit_edge
  %11 = phi i1 [ true, %._crit_edge ], [ false, %7 ]
  ret i1 %11
}